target datalayout = "e-m:e-p270:32:32-p271:32:32-p272:64:64-i64:64-i128:128-f80:128-n8:16:32:64-S128"
target triple = "x86_64-pc-linux-gnu"

%struct.SDL_CameraDriver = type { ptr, ptr, %struct.SDL_CameraDriverImpl, ptr, ptr, %struct.SDL_PendingCameraEvent, ptr, %struct.SDL_AtomicInt, %struct.SDL_AtomicInt }
%struct.SDL_CameraDriverImpl = type { ptr, ptr, ptr, ptr, ptr, ptr, ptr, ptr, i8 }
%struct.SDL_PendingCameraEvent = type { i32, i32, ptr }
%struct.SDL_AtomicInt = type { i32 }
%struct.SDL_Camera = type { ptr, ptr, i32, %struct.SDL_AtomicInt, ptr, ptr, ptr, ptr, i32, %struct.SDL_CameraSpec, %struct.SDL_CameraSpec, i32, ptr, i32, i64, i64, ptr, ptr, [8 x %struct.SurfaceList], %struct.SurfaceList, %struct.SurfaceList, %struct.SurfaceList, ptr, i32, i8, %struct.SDL_AtomicInt, %struct.SDL_AtomicInt, ptr, i32, i32, ptr }
%struct.SDL_CameraSpec = type { i32, i32, i32, i32, i32, i32 }
%struct.SurfaceList = type { ptr, i64, ptr }
%struct.SDL_Surface = type { i32, i32, i32, i32, i32, ptr, i32, ptr, i32, i32, ptr, i32, ptr, i32, ptr, i32, %struct.SDL_Rect, %struct.SDL_BlitMap }
%struct.SDL_Rect = type { i32, i32, i32, i32 }
%struct.SDL_BlitMap = type { i32, ptr, ptr, %struct.SDL_BlitInfo, i32, i32 }
%struct.SDL_BlitInfo = type { ptr, ptr, i32, i32, i32, i32, ptr, ptr, i32, i32, i32, i32, ptr, ptr, ptr, ptr, ptr, ptr, i32, i32, i8, i8, i8, i8 }

@camera_driver = internal global %struct.SDL_CameraDriver zeroinitializer, align 8

; Function Attrs: nounwind uwtable
define hidden void @UnrefPhysicalCamera(ptr noundef %0) #0 {
  %2 = alloca ptr, align 8
  store ptr %0, ptr %2, align 8
  %3 = load ptr, ptr %2, align 8
  %4 = getelementptr inbounds nuw %struct.SDL_Camera, ptr %3, i32 0, i32 3
  %5 = call i32 @SDL_AddAtomicInt_REAL(ptr noundef %4, i32 noundef -1)
  %6 = icmp eq i32 %5, 1
  br i1 %6, label %7, label %20

7:                                                ; preds = %1
  %8 = load ptr, ptr getelementptr inbounds nuw (%struct.SDL_CameraDriver, ptr @camera_driver, i32 0, i32 3), align 8
  call void @SDL_LockRWLockForWriting_REAL(ptr noundef %8)
  %9 = load ptr, ptr getelementptr inbounds nuw (%struct.SDL_CameraDriver, ptr @camera_driver, i32 0, i32 4), align 8
  %10 = load ptr, ptr %2, align 8
  %11 = getelementptr inbounds nuw %struct.SDL_Camera, ptr %10, i32 0, i32 11
  %12 = load i32, ptr %11, align 4
  %13 = zext i32 %12 to i64
  %14 = inttoptr i64 %13 to ptr
  %15 = call zeroext i1 @SDL_RemoveFromHashTable(ptr noundef %9, ptr noundef %14)
  br i1 %15, label %16, label %18

16:                                               ; preds = %7
  %17 = call i32 @SDL_AddAtomicInt_REAL(ptr noundef getelementptr inbounds nuw (%struct.SDL_CameraDriver, ptr @camera_driver, i32 0, i32 7), i32 noundef -1)
  br label %18

18:                                               ; preds = %16, %7
  %19 = load ptr, ptr getelementptr inbounds nuw (%struct.SDL_CameraDriver, ptr @camera_driver, i32 0, i32 3), align 8
  call void @SDL_UnlockRWLock_REAL(ptr noundef %19)
  br label %20

20:                                               ; preds = %18, %1
  ret void
}

; Function Attrs: nounwind uwtable
define hidden void @RefPhysicalCamera(ptr noundef %0) #0 {
  %2 = alloca ptr, align 8
  store ptr %0, ptr %2, align 8
  %3 = load ptr, ptr %2, align 8
  %4 = getelementptr inbounds nuw %struct.SDL_Camera, ptr %3, i32 0, i32 3
  %5 = call i32 @SDL_AddAtomicInt_REAL(ptr noundef %4, i32 noundef 1)
  ret void
}

; Function Attrs: nounwind uwtable
define internal void @ReleaseCamera(ptr noundef %0) #0 {
  %2 = alloca ptr, align 8
  store ptr %0, ptr %2, align 8
  %3 = load ptr, ptr %2, align 8
  %4 = icmp ne ptr %3, null
  br i1 %4, label %5, label %10

5:                                                ; preds = %1
  %6 = load ptr, ptr %2, align 8
  %7 = getelementptr inbounds nuw %struct.SDL_Camera, ptr %6, i32 0, i32 0
  %8 = load ptr, ptr %7, align 8
  call void @SDL_UnlockMutex_REAL(ptr noundef %8)
  %9 = load ptr, ptr %2, align 8
  call void @UnrefPhysicalCamera(ptr noundef %9)
  br label %10

10:                                               ; preds = %5, %1
  ret void
}

; Function Attrs: nounwind uwtable
define internal void @ObtainPhysicalCameraObj(ptr noundef %0) #0 {
  %2 = alloca ptr, align 8
  store ptr %0, ptr %2, align 8
  %3 = load ptr, ptr %2, align 8
  %4 = icmp ne ptr %3, null
  br i1 %4, label %5, label %10

5:                                                ; preds = %1
  %6 = load ptr, ptr %2, align 8
  call void @RefPhysicalCamera(ptr noundef %6)
  %7 = load ptr, ptr %2, align 8
  %8 = getelementptr inbounds nuw %struct.SDL_Camera, ptr %7, i32 0, i32 0
  %9 = load ptr, ptr %8, align 8
  call void @SDL_LockMutex_REAL(ptr noundef %9)
  br label %10

10:                                               ; preds = %5, %1
  ret void
}

; Function Attrs: nounwind uwtable
define hidden void @SDL_ReleaseCameraFrame_REAL(ptr noundef %0, ptr noundef %1) #0 {
  %3 = alloca ptr, align 8
  %4 = alloca ptr, align 8
  %5 = alloca ptr, align 8
  %6 = alloca ptr, align 8
  %7 = alloca ptr, align 8
  %8 = alloca i32, align 4
  store ptr %0, ptr %3, align 8
  store ptr %1, ptr %4, align 8
  %9 = load ptr, ptr %3, align 8
  %10 = icmp ne ptr %9, null
  br i1 %10, label %11, label %14

11:                                               ; preds = %2
  %12 = load ptr, ptr %4, align 8
  %13 = icmp ne ptr %12, null
  br i1 %13, label %15, label %14

14:                                               ; preds = %11, %2
  br label %85

15:                                               ; preds = %11
  call void @llvm.lifetime.start.p0(i64 8, ptr %5) #7
  %16 = load ptr, ptr %3, align 8
  store ptr %16, ptr %5, align 8
  %17 = load ptr, ptr %5, align 8
  call void @ObtainPhysicalCameraObj(ptr noundef %17)
  call void @llvm.lifetime.start.p0(i64 8, ptr %6) #7
  %18 = load ptr, ptr %5, align 8
  %19 = getelementptr inbounds nuw %struct.SDL_Camera, ptr %18, i32 0, i32 21
  store ptr %19, ptr %6, align 8
  call void @llvm.lifetime.start.p0(i64 8, ptr %7) #7
  %20 = load ptr, ptr %6, align 8
  %21 = getelementptr inbounds nuw %struct.SurfaceList, ptr %20, i32 0, i32 2
  %22 = load ptr, ptr %21, align 8
  store ptr %22, ptr %7, align 8
  br label %23

23:                                               ; preds = %35, %15
  %24 = load ptr, ptr %7, align 8
  %25 = icmp ne ptr %24, null
  br i1 %25, label %26, label %39

26:                                               ; preds = %23
  %27 = load ptr, ptr %7, align 8
  %28 = getelementptr inbounds nuw %struct.SurfaceList, ptr %27, i32 0, i32 0
  %29 = load ptr, ptr %28, align 8
  %30 = load ptr, ptr %4, align 8
  %31 = icmp eq ptr %29, %30
  br i1 %31, label %32, label %33

32:                                               ; preds = %26
  br label %39

33:                                               ; preds = %26
  %34 = load ptr, ptr %7, align 8
  store ptr %34, ptr %6, align 8
  br label %35

35:                                               ; preds = %33
  %36 = load ptr, ptr %7, align 8
  %37 = getelementptr inbounds nuw %struct.SurfaceList, ptr %36, i32 0, i32 2
  %38 = load ptr, ptr %37, align 8
  store ptr %38, ptr %7, align 8
  br label %23, !llvm.loop !21

39:                                               ; preds = %32, %23
  %40 = load ptr, ptr %7, align 8
  %41 = icmp ne ptr %40, null
  br i1 %41, label %44, label %42

42:                                               ; preds = %39
  %43 = load ptr, ptr %5, align 8
  call void @ReleaseCamera(ptr noundef %43)
  store i32 1, ptr %8, align 4
  br label %83

44:                                               ; preds = %39
  %45 = load ptr, ptr %5, align 8
  %46 = getelementptr inbounds nuw %struct.SDL_Camera, ptr %45, i32 0, i32 24
  %47 = load i8, ptr %46, align 4, !range !5, !noundef !6
  %48 = trunc i8 %47 to i1
  br i1 %48, label %64, label %49

49:                                               ; preds = %44
  %50 = load ptr, ptr %5, align 8
  %51 = getelementptr inbounds nuw %struct.SDL_Camera, ptr %50, i32 0, i32 23
  %52 = load i32, ptr %51, align 8
  %53 = icmp ne i32 %52, 0
  br i1 %53, label %64, label %54

54:                                               ; preds = %49
  %55 = load ptr, ptr %5, align 8
  %56 = getelementptr inbounds nuw %struct.SDL_Camera, ptr %55, i32 0, i32 6
  %57 = load ptr, ptr %56, align 8
  %58 = load ptr, ptr %5, align 8
  %59 = load ptr, ptr %4, align 8
  call void %57(ptr noundef %58, ptr noundef %59)
  %60 = load ptr, ptr %4, align 8
  %61 = getelementptr inbounds nuw %struct.SDL_Surface, ptr %60, i32 0, i32 5
  store ptr null, ptr %61, align 8
  %62 = load ptr, ptr %4, align 8
  %63 = getelementptr inbounds nuw %struct.SDL_Surface, ptr %62, i32 0, i32 4
  store i32 0, ptr %63, align 8
  br label %64

64:                                               ; preds = %54, %49, %44
  %65 = load ptr, ptr %7, align 8
  %66 = getelementptr inbounds nuw %struct.SurfaceList, ptr %65, i32 0, i32 1
  store i64 0, ptr %66, align 8
  %67 = load ptr, ptr %7, align 8
  %68 = getelementptr inbounds nuw %struct.SurfaceList, ptr %67, i32 0, i32 2
  %69 = load ptr, ptr %68, align 8
  %70 = load ptr, ptr %6, align 8
  %71 = getelementptr inbounds nuw %struct.SurfaceList, ptr %70, i32 0, i32 2
  store ptr %69, ptr %71, align 8
  %72 = load ptr, ptr %5, align 8
  %73 = getelementptr inbounds nuw %struct.SDL_Camera, ptr %72, i32 0, i32 20
  %74 = getelementptr inbounds nuw %struct.SurfaceList, ptr %73, i32 0, i32 2
  %75 = load ptr, ptr %74, align 8
  %76 = load ptr, ptr %7, align 8
  %77 = getelementptr inbounds nuw %struct.SurfaceList, ptr %76, i32 0, i32 2
  store ptr %75, ptr %77, align 8
  %78 = load ptr, ptr %7, align 8
  %79 = load ptr, ptr %5, align 8
  %80 = getelementptr inbounds nuw %struct.SDL_Camera, ptr %79, i32 0, i32 20
  %81 = getelementptr inbounds nuw %struct.SurfaceList, ptr %80, i32 0, i32 2
  store ptr %78, ptr %81, align 8
  %82 = load ptr, ptr %5, align 8
  call void @ReleaseCamera(ptr noundef %82)
  store i32 0, ptr %8, align 4
  br label %83

83:                                               ; preds = %64, %42
  call void @llvm.lifetime.end.p0(i64 8, ptr %7) #7
  call void @llvm.lifetime.end.p0(i64 8, ptr %6) #7
  call void @llvm.lifetime.end.p0(i64 8, ptr %5) #7
  %84 = load i32, ptr %8, align 4
  switch i32 %84, label %86 [
    i32 0, label %85
    i32 1, label %85
  ]

85:                                               ; preds = %14, %83, %83
  ret void

86:                                               ; preds = %83
  unreachable
}