; Function Attrs: nounwind uwtable
define hidden void @SDL_ReleaseCameraFrame_REAL(ptr noundef %0, ptr noundef %1) local_unnamed_addr #1 {
  %3 = icmp ne ptr %0, null
  %4 = icmp ne ptr %1, null
  %or.cond = and i1 %3, %4
  br i1 %or.cond, label %5, label %ReleaseCamera.exit

5:                                                ; preds = %2
  %6 = getelementptr inbounds nuw i8, ptr %0, i64 20
  %7 = tail call i32 @SDL_AddAtomicInt_REAL(ptr noundef nonnull %6, i32 noundef 1) #11
  %8 = load ptr, ptr %0, align 8
  tail call void @SDL_LockMutex_REAL(ptr noundef %8) #11
  %9 = getelementptr inbounds nuw i8, ptr %0, i64 416
  %.036 = load ptr, ptr %9, align 8
  %.not37 = icmp eq ptr %.036, null
  br i1 %.not37, label %.critedge, label %.lr.ph.preheader

.lr.ph.preheader:                                 ; preds = %5
  %10 = getelementptr inbounds nuw i8, ptr %0, i64 400
  %11 = load ptr, ptr %.036, align 8
  %12 = icmp eq ptr %11, %1
  br i1 %12, label %.lr.ph._crit_edge, label %.lr.ph47

.lr.ph:                                           ; preds = %.lr.ph47
  %13 = load ptr, ptr %.0, align 8
  %14 = icmp eq ptr %13, %1
  br i1 %14, label %.lr.ph._crit_edge, label %.lr.ph47, !llvm.loop !21

.lr.ph47:                                         ; preds = %.lr.ph.preheader, %.lr.ph
  %.03946 = phi ptr [ %.0, %.lr.ph ], [ %.036, %.lr.ph.preheader ]
  %15 = getelementptr inbounds nuw i8, ptr %.03946, i64 16
  %.0 = load ptr, ptr %15, align 8
  %.not = icmp eq ptr %.0, null
  br i1 %.not, label %.critedge, label %.lr.ph, !llvm.loop !21

.critedge:                                        ; preds = %.lr.ph47, %5
  %16 = load ptr, ptr %0, align 8
  tail call void @SDL_UnlockMutex_REAL(ptr noundef %16) #11
  %17 = tail call i32 @SDL_AddAtomicInt_REAL(ptr noundef nonnull %6, i32 noundef -1) #11
  %18 = icmp eq i32 %17, 1
  br i1 %18, label %19, label %ReleaseCamera.exit

19:                                               ; preds = %.critedge
  %20 = load ptr, ptr getelementptr inbounds nuw (i8, ptr @camera_driver, i64 88), align 8
  tail call void @SDL_LockRWLockForWriting_REAL(ptr noundef %20) #11
  %21 = load ptr, ptr getelementptr inbounds nuw (i8, ptr @camera_driver, i64 96), align 8
  %22 = getelementptr inbounds nuw i8, ptr %0, i64 108
  %23 = load i32, ptr %22, align 4
  %24 = zext i32 %23 to i64
  %25 = inttoptr i64 %24 to ptr
  %26 = tail call zeroext i1 @SDL_RemoveFromHashTable(ptr noundef %21, ptr noundef %25) #11
  br i1 %26, label %ReleaseCamera.exit.sink.split.sink.split, label %ReleaseCamera.exit.sink.split

.lr.ph._crit_edge:                                ; preds = %.lr.ph, %.lr.ph.preheader
  %.039.lcssa = phi ptr [ %.036, %.lr.ph.preheader ], [ %.0, %.lr.ph ]
  %.02938.lcssa = phi ptr [ %10, %.lr.ph.preheader ], [ %.03946, %.lr.ph ]
  %27 = getelementptr inbounds nuw i8, ptr %0, i64 436
  %28 = load i8, ptr %27, align 4, !range !7, !noundef !8
  %29 = trunc nuw i8 %28 to i1
  br i1 %29, label %38, label %30

30:                                               ; preds = %.lr.ph._crit_edge
  %31 = getelementptr inbounds nuw i8, ptr %0, i64 432
  %32 = load i32, ptr %31, align 8
  %.not32 = icmp eq i32 %32, 0
  br i1 %.not32, label %33, label %38

33:                                               ; preds = %30
  %34 = getelementptr inbounds nuw i8, ptr %0, i64 40
  %35 = load ptr, ptr %34, align 8
  tail call void %35(ptr noundef nonnull %0, ptr noundef nonnull %1) #11
  %36 = getelementptr inbounds nuw i8, ptr %1, i64 24
  store ptr null, ptr %36, align 8
  %37 = getelementptr inbounds nuw i8, ptr %1, i64 16
  store i32 0, ptr %37, align 8
  br label %38

38:                                               ; preds = %33, %30, %.lr.ph._crit_edge
  %39 = getelementptr inbounds nuw i8, ptr %.039.lcssa, i64 8
  store i64 0, ptr %39, align 8
  %40 = getelementptr inbounds nuw i8, ptr %.039.lcssa, i64 16
  %41 = load ptr, ptr %40, align 8
  %42 = getelementptr inbounds nuw i8, ptr %.02938.lcssa, i64 16
  store ptr %41, ptr %42, align 8
  %43 = getelementptr inbounds nuw i8, ptr %0, i64 392
  %44 = load ptr, ptr %43, align 8
  store ptr %44, ptr %40, align 8
  store ptr %.039.lcssa, ptr %43, align 8
  %45 = load ptr, ptr %0, align 8
  tail call void @SDL_UnlockMutex_REAL(ptr noundef %45) #11
  %46 = tail call i32 @SDL_AddAtomicInt_REAL(ptr noundef nonnull %6, i32 noundef -1) #11
  %47 = icmp eq i32 %46, 1
  br i1 %47, label %48, label %ReleaseCamera.exit

48:                                               ; preds = %38
  %49 = load ptr, ptr getelementptr inbounds nuw (i8, ptr @camera_driver, i64 88), align 8
  tail call void @SDL_LockRWLockForWriting_REAL(ptr noundef %49) #11
  %50 = load ptr, ptr getelementptr inbounds nuw (i8, ptr @camera_driver, i64 96), align 8
  %51 = getelementptr inbounds nuw i8, ptr %0, i64 108
  %52 = load i32, ptr %51, align 4
  %53 = zext i32 %52 to i64
  %54 = inttoptr i64 %53 to ptr
  %55 = tail call zeroext i1 @SDL_RemoveFromHashTable(ptr noundef %50, ptr noundef %54) #11
  br i1 %55, label %ReleaseCamera.exit.sink.split.sink.split, label %ReleaseCamera.exit.sink.split

ReleaseCamera.exit.sink.split.sink.split:         ; preds = %48, %19
  %56 = tail call i32 @SDL_AddAtomicInt_REAL(ptr noundef nonnull getelementptr inbounds nuw (i8, ptr @camera_driver, i64 128), i32 noundef -1) #11
  br label %ReleaseCamera.exit.sink.split

ReleaseCamera.exit.sink.split:                    ; preds = %ReleaseCamera.exit.sink.split.sink.split, %48, %19
  %57 = load ptr, ptr getelementptr inbounds nuw (i8, ptr @camera_driver, i64 88), align 8
  tail call void @SDL_UnlockRWLock_REAL(ptr noundef %57) #11
  br label %ReleaseCamera.exit

ReleaseCamera.exit:                               ; preds = %ReleaseCamera.exit.sink.split, %38, %.critedge, %2
  ret void
}